target datalayout = "e-m:e-p270:32:32-p271:32:32-p272:64:64-i64:64-i128:128-f80:128-n8:16:32:64-S128"
target triple = "x86_64-pc-linux-gnu"

%"struct.cv::aruco::zmaxheap" = type { i64, i32, i32, ptr, ptr, ptr }

; Function Attrs: mustprogress nounwind uwtable
define internal void @_ZN2cv5arucoL25_zmaxheap_ensure_capacityEPNS0_8zmaxheapEi(ptr noundef %0, i32 noundef %1) #0 {
  %3 = alloca ptr, align 8
  %4 = alloca i32, align 4
  %5 = alloca i32, align 4
  store ptr %0, ptr %3, align 8
  store i32 %1, ptr %4, align 4
  %6 = load ptr, ptr %3, align 8
  %7 = getelementptr inbounds %"struct.cv::aruco::zmaxheap", ptr %6, i32 0, i32 2
  %8 = load i32, ptr %7, align 4
  %9 = load i32, ptr %4, align 4
  %10 = icmp sge i32 %8, %9
  br i1 %10, label %11, label %12

11:                                               ; preds = %2
  br label %52

12:                                               ; preds = %2
  %13 = load ptr, ptr %3, align 8
  %14 = getelementptr inbounds %"struct.cv::aruco::zmaxheap", ptr %13, i32 0, i32 2
  %15 = load i32, ptr %14, align 4
  store i32 %15, ptr %5, align 4
  br label %16

16:                                               ; preds = %24, %23, %12
  %17 = load i32, ptr %5, align 4
  %18 = load i32, ptr %4, align 4
  %19 = icmp slt i32 %17, %18
  br i1 %19, label %20, label %27

20:                                               ; preds = %16
  %21 = load i32, ptr %5, align 4
  %22 = icmp slt i32 %21, 16
  br i1 %22, label %23, label %24

23:                                               ; preds = %20
  store i32 16, ptr %5, align 4
  br label %16, !llvm.loop !6

24:                                               ; preds = %20
  %25 = load i32, ptr %5, align 4
  %26 = mul nsw i32 %25, 2
  store i32 %26, ptr %5, align 4
  br label %16, !llvm.loop !6

27:                                               ; preds = %16
  %28 = load ptr, ptr %3, align 8
  %29 = getelementptr inbounds %"struct.cv::aruco::zmaxheap", ptr %28, i32 0, i32 3
  %30 = load ptr, ptr %29, align 8
  %31 = load i32, ptr %5, align 4
  %32 = sext i32 %31 to i64
  %33 = mul i64 %32, 4
  %34 = call ptr @realloc(ptr noundef %30, i64 noundef %33) #13
  %35 = load ptr, ptr %3, align 8
  %36 = getelementptr inbounds %"struct.cv::aruco::zmaxheap", ptr %35, i32 0, i32 3
  store ptr %34, ptr %36, align 8
  %37 = load ptr, ptr %3, align 8
  %38 = getelementptr inbounds %"struct.cv::aruco::zmaxheap", ptr %37, i32 0, i32 4
  %39 = load ptr, ptr %38, align 8
  %40 = load i32, ptr %5, align 4
  %41 = sext i32 %40 to i64
  %42 = load ptr, ptr %3, align 8
  %43 = getelementptr inbounds %"struct.cv::aruco::zmaxheap", ptr %42, i32 0, i32 0
  %44 = load i64, ptr %43, align 8
  %45 = mul i64 %41, %44
  %46 = call ptr @realloc(ptr noundef %39, i64 noundef %45) #13
  %47 = load ptr, ptr %3, align 8
  %48 = getelementptr inbounds %"struct.cv::aruco::zmaxheap", ptr %47, i32 0, i32 4
  store ptr %46, ptr %48, align 8
  %49 = load i32, ptr %5, align 4
  %50 = load ptr, ptr %3, align 8
  %51 = getelementptr inbounds %"struct.cv::aruco::zmaxheap", ptr %50, i32 0, i32 2
  store i32 %49, ptr %51, align 4
  br label %52

52:                                               ; preds = %27, %11
  ret void
}

; Function Attrs: mustprogress uwtable
define hidden void @_ZN2cv5aruco12zmaxheap_addEPNS0_8zmaxheapEPvf(ptr noundef %0, ptr noundef %1, float noundef %2) #2 {
  %4 = alloca ptr, align 8
  %5 = alloca ptr, align 8
  %6 = alloca float, align 4
  %7 = alloca i32, align 4
  %8 = alloca i32, align 4
  store ptr %0, ptr %4, align 8
  store ptr %1, ptr %5, align 8
  store float %2, ptr %6, align 4
  %9 = load ptr, ptr %4, align 8
  %10 = load ptr, ptr %4, align 8
  %11 = getelementptr inbounds %"struct.cv::aruco::zmaxheap", ptr %10, i32 0, i32 1
  %12 = load i32, ptr %11, align 8
  %13 = add nsw i32 %12, 1
  call void @_ZN2cv5arucoL25_zmaxheap_ensure_capacityEPNS0_8zmaxheapEi(ptr noundef %9, i32 noundef %13)
  %14 = load ptr, ptr %4, align 8
  %15 = getelementptr inbounds %"struct.cv::aruco::zmaxheap", ptr %14, i32 0, i32 1
  %16 = load i32, ptr %15, align 8
  store i32 %16, ptr %7, align 4
  %17 = load float, ptr %6, align 4
  %18 = load ptr, ptr %4, align 8
  %19 = getelementptr inbounds %"struct.cv::aruco::zmaxheap", ptr %18, i32 0, i32 3
  %20 = load ptr, ptr %19, align 8
  %21 = load i32, ptr %7, align 4
  %22 = sext i32 %21 to i64
  %23 = getelementptr inbounds float, ptr %20, i64 %22
  store float %17, ptr %23, align 4
  %24 = load ptr, ptr %4, align 8
  %25 = getelementptr inbounds %"struct.cv::aruco::zmaxheap", ptr %24, i32 0, i32 4
  %26 = load ptr, ptr %25, align 8
  %27 = load i32, ptr %7, align 4
  %28 = sext i32 %27 to i64
  %29 = load ptr, ptr %4, align 8
  %30 = getelementptr inbounds %"struct.cv::aruco::zmaxheap", ptr %29, i32 0, i32 0
  %31 = load i64, ptr %30, align 8
  %32 = mul i64 %28, %31
  %33 = getelementptr inbounds i8, ptr %26, i64 %32
  %34 = load ptr, ptr %5, align 8
  %35 = load ptr, ptr %4, align 8
  %36 = getelementptr inbounds %"struct.cv::aruco::zmaxheap", ptr %35, i32 0, i32 0
  %37 = load i64, ptr %36, align 8
  call void @llvm.memcpy.p0.p0.i64(ptr align 1 %33, ptr align 1 %34, i64 %37, i1 false)
  %38 = load ptr, ptr %4, align 8
  %39 = getelementptr inbounds %"struct.cv::aruco::zmaxheap", ptr %38, i32 0, i32 1
  %40 = load i32, ptr %39, align 8
  %41 = add nsw i32 %40, 1
  store i32 %41, ptr %39, align 8
  br label %42

42:                                               ; preds = %59, %3
  %43 = load i32, ptr %7, align 4
  %44 = icmp sgt i32 %43, 0
  br i1 %44, label %45, label %67

45:                                               ; preds = %42
  %46 = load i32, ptr %7, align 4
  %47 = sub nsw i32 %46, 1
  %48 = sdiv i32 %47, 2
  store i32 %48, ptr %8, align 4
  %49 = load ptr, ptr %4, align 8
  %50 = getelementptr inbounds %"struct.cv::aruco::zmaxheap", ptr %49, i32 0, i32 3
  %51 = load ptr, ptr %50, align 8
  %52 = load i32, ptr %8, align 4
  %53 = sext i32 %52 to i64
  %54 = getelementptr inbounds float, ptr %51, i64 %53
  %55 = load float, ptr %54, align 4
  %56 = load float, ptr %6, align 4
  %57 = fcmp oge float %55, %56
  br i1 %57, label %58, label %59

58:                                               ; preds = %45
  br label %67

59:                                               ; preds = %45
  %60 = load ptr, ptr %4, align 8
  %61 = getelementptr inbounds %"struct.cv::aruco::zmaxheap", ptr %60, i32 0, i32 5
  %62 = load ptr, ptr %61, align 8
  %63 = load ptr, ptr %4, align 8
  %64 = load i32, ptr %7, align 4
  %65 = load i32, ptr %8, align 4
  call void %62(ptr noundef %63, i32 noundef %64, i32 noundef %65)
  %66 = load i32, ptr %8, align 4
  store i32 %66, ptr %7, align 4
  br label %42, !llvm.loop !4

67:                                               ; preds = %58, %42
  ret void
}