; Function Attrs: mustprogress uwtable
define hidden void @_ZN2cv5aruco12zmaxheap_addEPNS0_8zmaxheapEPvf(ptr noundef %0, ptr nocapture noundef readonly %1, float noundef %2) local_unnamed_addr #2 {
  %4 = getelementptr inbounds i8, ptr %0, i64 8
  %5 = load i32, ptr %4, align 8
  %6 = getelementptr inbounds i8, ptr %0, i64 12
  %7 = load i32, ptr %6, align 4
  %.not.i.not = icmp sgt i32 %7, %5
  br i1 %.not.i.not, label %_ZN2cv5arucoL25_zmaxheap_ensure_capacityEPNS0_8zmaxheapEi.exit, label %.preheader.i

.preheader.i:                                     ; preds = %3, %.preheader.i
  %.017.i = phi i32 [ %spec.select.i, %.preheader.i ], [ %7, %3 ]
  %8 = icmp slt i32 %.017.i, 16
  %9 = shl nuw nsw i32 %.017.i, 1
  %spec.select.i = select i1 %8, i32 16, i32 %9
  %.not = icmp sgt i32 %spec.select.i, %5
  br i1 %.not, label %10, label %.preheader.i, !llvm.loop !4

10:                                               ; preds = %.preheader.i
  %11 = getelementptr inbounds i8, ptr %0, i64 16
  %12 = load ptr, ptr %11, align 8
  %13 = zext nneg i32 %spec.select.i to i64
  %14 = shl nuw nsw i64 %13, 2
  %15 = tail call ptr @realloc(ptr noundef %12, i64 noundef %14) #18
  store ptr %15, ptr %11, align 8
  %16 = getelementptr inbounds i8, ptr %0, i64 24
  %17 = load ptr, ptr %16, align 8
  %18 = load i64, ptr %0, align 8
  %19 = mul i64 %18, %13
  %20 = tail call ptr @realloc(ptr noundef %17, i64 noundef %19) #18
  store ptr %20, ptr %16, align 8
  store i32 %spec.select.i, ptr %6, align 4
  %.pre = load i32, ptr %4, align 8
  br label %_ZN2cv5arucoL25_zmaxheap_ensure_capacityEPNS0_8zmaxheapEi.exit

_ZN2cv5arucoL25_zmaxheap_ensure_capacityEPNS0_8zmaxheapEi.exit: ; preds = %3, %10
  %21 = phi i32 [ %5, %3 ], [ %.pre, %10 ]
  %22 = getelementptr inbounds i8, ptr %0, i64 16
  %23 = load ptr, ptr %22, align 8
  %24 = sext i32 %21 to i64
  %25 = getelementptr inbounds float, ptr %23, i64 %24
  store float %2, ptr %25, align 4
  %26 = getelementptr inbounds i8, ptr %0, i64 24
  %27 = load ptr, ptr %26, align 8
  %28 = load i64, ptr %0, align 8
  %29 = mul i64 %28, %24
  %30 = getelementptr inbounds i8, ptr %27, i64 %29
  tail call void @llvm.memcpy.p0.p0.i64(ptr align 1 %30, ptr align 1 %1, i64 %28, i1 false)
  %31 = load i32, ptr %4, align 8
  %32 = add nsw i32 %31, 1
  store i32 %32, ptr %4, align 8
  %33 = icmp sgt i32 %21, 0
  br i1 %33, label %.lr.ph, label %._crit_edge

.lr.ph:                                           ; preds = %_ZN2cv5arucoL25_zmaxheap_ensure_capacityEPNS0_8zmaxheapEi.exit
  %34 = getelementptr inbounds i8, ptr %0, i64 32
  br label %35

35:                                               ; preds = %.lr.ph, %43
  %.021 = phi i32 [ %21, %.lr.ph ], [ %37, %43 ]
  %36 = add nsw i32 %.021, -1
  %37 = lshr i32 %36, 1
  %38 = load ptr, ptr %22, align 8
  %39 = zext nneg i32 %37 to i64
  %40 = getelementptr inbounds float, ptr %38, i64 %39
  %41 = load float, ptr %40, align 4
  %42 = fcmp ult float %41, %2
  br i1 %42, label %43, label %._crit_edge

43:                                               ; preds = %35
  %44 = load ptr, ptr %34, align 8
  tail call void %44(ptr noundef nonnull %0, i32 noundef %.021, i32 noundef %37)
  %.not23 = icmp ult i32 %36, 2
  br i1 %.not23, label %._crit_edge, label %35, !llvm.loop !6

._crit_edge:                                      ; preds = %43, %35, %_ZN2cv5arucoL25_zmaxheap_ensure_capacityEPNS0_8zmaxheapEi.exit
  ret void
}